target datalayout = "e-m:e-p270:32:32-p271:32:32-p272:64:64-i64:64-i128:128-f80:128-n8:16:32:64-S128"
target triple = "x86_64-pc-linux-gnu"

; Function Attrs: nounwind uwtable
define ptr @EVP_bf_cfb() #0 {
  %1 = call ptr @EVP_bf_cfb64()
  ret ptr %1
}

declare ptr @EVP_bf_cfb64() #1

; Function Attrs: nounwind uwtable
define ptr @EVP_des_cfb() #0 {
  %1 = call ptr @EVP_des_cfb64()
  ret ptr %1
}

declare ptr @EVP_des_cfb64() #1

; Function Attrs: nounwind uwtable
define ptr @EVP_des_ede3_cfb() #0 {
  %1 = call ptr @EVP_des_ede3_cfb64()
  ret ptr %1
}

declare ptr @EVP_des_ede3_cfb64() #1

; Function Attrs: nounwind uwtable
define ptr @EVP_des_ede_cfb() #0 {
  %1 = call ptr @EVP_des_ede_cfb64()
  ret ptr %1
}

declare ptr @EVP_des_ede_cfb64() #1

; Function Attrs: nounwind uwtable
define ptr @EVP_idea_cfb() #0 {
  %1 = call ptr @EVP_idea_cfb64()
  ret ptr %1
}

declare ptr @EVP_idea_cfb64() #1

; Function Attrs: nounwind uwtable
define ptr @EVP_rc2_cfb() #0 {
  %1 = call ptr @EVP_rc2_cfb64()
  ret ptr %1
}

declare ptr @EVP_rc2_cfb64() #1

; Function Attrs: nounwind uwtable
define ptr @EVP_cast5_cfb() #0 {
  %1 = call ptr @EVP_cast5_cfb64()
  ret ptr %1
}

declare ptr @EVP_cast5_cfb64() #1

; Function Attrs: nounwind uwtable
define ptr @EVP_aes_128_cfb() #0 {
  %1 = call ptr @EVP_aes_128_cfb128()
  ret ptr %1
}

declare ptr @EVP_aes_128_cfb128() #1

; Function Attrs: nounwind uwtable
define ptr @EVP_aes_192_cfb() #0 {
  %1 = call ptr @EVP_aes_192_cfb128()
  ret ptr %1
}

declare ptr @EVP_aes_192_cfb128() #1

; Function Attrs: nounwind uwtable
define ptr @EVP_aes_256_cfb() #0 {
  %1 = call ptr @EVP_aes_256_cfb128()
  ret ptr %1
}

declare ptr @EVP_aes_256_cfb128() #1


!llvm.module.flags = !{!0, !1, !2}

!0 = !{i32 1, !"wchar_size", i32 4}
!1 = !{i32 8, !"PIC Level", i32 2}
!2 = !{i32 7, !"uwtable", i32 2}
