; ModuleID = 'bench/openssl/original/e_old.ll'
source_filename = "bench/openssl/original/e_old.ll"
target datalayout = "e-m:e-p270:32:32-p271:32:32-p272:64:64-i64:64-i128:128-f80:128-n8:16:32:64-S128"
target triple = "x86_64-pc-linux-gnu"

; Function Attrs: nounwind uwtable
define ptr @EVP_bf_cfb() local_unnamed_addr #0 {
  %1 = tail call ptr @EVP_bf_cfb64() #2
  ret ptr %1
}

declare ptr @EVP_bf_cfb64() local_unnamed_addr #1

; Function Attrs: nounwind uwtable
define ptr @EVP_des_cfb() local_unnamed_addr #0 {
  %1 = tail call ptr @EVP_des_cfb64() #2
  ret ptr %1
}

declare ptr @EVP_des_cfb64() local_unnamed_addr #1

; Function Attrs: nounwind uwtable
define ptr @EVP_des_ede3_cfb() local_unnamed_addr #0 {
  %1 = tail call ptr @EVP_des_ede3_cfb64() #2
  ret ptr %1
}

declare ptr @EVP_des_ede3_cfb64() local_unnamed_addr #1

; Function Attrs: nounwind uwtable
define ptr @EVP_des_ede_cfb() local_unnamed_addr #0 {
  %1 = tail call ptr @EVP_des_ede_cfb64() #2
  ret ptr %1
}

declare ptr @EVP_des_ede_cfb64() local_unnamed_addr #1

; Function Attrs: nounwind uwtable
define ptr @EVP_idea_cfb() local_unnamed_addr #0 {
  %1 = tail call ptr @EVP_idea_cfb64() #2
  ret ptr %1
}

declare ptr @EVP_idea_cfb64() local_unnamed_addr #1

; Function Attrs: nounwind uwtable
define ptr @EVP_rc2_cfb() local_unnamed_addr #0 {
  %1 = tail call ptr @EVP_rc2_cfb64() #2
  ret ptr %1
}

declare ptr @EVP_rc2_cfb64() local_unnamed_addr #1

; Function Attrs: nounwind uwtable
define ptr @EVP_cast5_cfb() local_unnamed_addr #0 {
  %1 = tail call ptr @EVP_cast5_cfb64() #2
  ret ptr %1
}

declare ptr @EVP_cast5_cfb64() local_unnamed_addr #1

; Function Attrs: nounwind uwtable
define ptr @EVP_aes_128_cfb() local_unnamed_addr #0 {
  %1 = tail call ptr @EVP_aes_128_cfb128() #2
  ret ptr %1
}

declare ptr @EVP_aes_128_cfb128() local_unnamed_addr #1

; Function Attrs: nounwind uwtable
define ptr @EVP_aes_192_cfb() local_unnamed_addr #0 {
  %1 = tail call ptr @EVP_aes_192_cfb128() #2
  ret ptr %1
}

declare ptr @EVP_aes_192_cfb128() local_unnamed_addr #1

; Function Attrs: nounwind uwtable
define ptr @EVP_aes_256_cfb() local_unnamed_addr #0 {
  %1 = tail call ptr @EVP_aes_256_cfb128() #2
  ret ptr %1
}

declare ptr @EVP_aes_256_cfb128() local_unnamed_addr #1


!llvm.module.flags = !{!0, !1, !2}

!0 = !{i32 1, !"wchar_size", i32 4}
!1 = !{i32 8, !"PIC Level", i32 2}
!2 = !{i32 7, !"uwtable", i32 2}
